; Function Attrs: nounwind uwtable
define i32 @EVP_PKEY_CTX_set_dsa_paramgen_md_props(ptr noundef %0, ptr noundef %1, ptr noundef %2) local_unnamed_addr #0 {
  %4 = alloca [3 x %struct.ossl_param_st], align 16
  %5 = alloca %struct.ossl_param_st, align 8
  %6 = alloca %struct.ossl_param_st, align 8
  call void @llvm.lifetime.start.p0(i64 120, ptr nonnull %4) #4
  %7 = icmp eq ptr %0, null
  br i1 %7, label %11, label %8

8:                                                ; preds = %3
  %9 = load i32, ptr %0, align 8, !tbaa !3
  %10 = and i32 %9, 6
  %.not.i = icmp eq i32 %10, 0
  br i1 %.not.i, label %11, label %12

11:                                               ; preds = %8, %3
  tail call void @ERR_new() #4
  tail call void @ERR_set_debug(ptr noundef nonnull @.str.7, i32 noundef 20, ptr noundef nonnull @__func__.dsa_paramgen_check) #4
  tail call void (i32, i32, ptr, ...) @ERR_set_error(i32 noundef 6, i32 noundef 147, ptr noundef null) #4
  br label %dsa_paramgen_check.exit.thread

12:                                               ; preds = %8
  %13 = getelementptr inbounds nuw i8, ptr %0, i64 120
  %14 = load ptr, ptr %13, align 8, !tbaa !19
  %.not6.i = icmp eq ptr %14, null
  br i1 %.not6.i, label %dsa_paramgen_check.exit, label %15

15:                                               ; preds = %12
  %16 = load i32, ptr %14, align 8, !tbaa !20
  %.not7.i = icmp eq i32 %16, 116
  br i1 %.not7.i, label %dsa_paramgen_check.exit, label %dsa_paramgen_check.exit.thread

dsa_paramgen_check.exit:                          ; preds = %15, %12
  %17 = getelementptr inbounds nuw i8, ptr %4, i64 40
  call void @OSSL_PARAM_construct_utf8_string(ptr dead_on_unwind nonnull writable sret(%struct.ossl_param_st) align 8 %4, ptr noundef nonnull @.str.5, ptr noundef %1, i64 noundef 0) #4
  %.not = icmp eq ptr %2, null
  br i1 %.not, label %20, label %18

18:                                               ; preds = %dsa_paramgen_check.exit
  %19 = getelementptr inbounds nuw i8, ptr %4, i64 80
  call void @llvm.lifetime.start.p0(i64 40, ptr nonnull %5) #4
  call void @OSSL_PARAM_construct_utf8_string(ptr dead_on_unwind nonnull writable sret(%struct.ossl_param_st) align 8 %5, ptr noundef nonnull @.str.6, ptr noundef nonnull %2, i64 noundef 0) #4
  call void @llvm.memcpy.p0.p0.i64(ptr noundef nonnull align 8 dereferenceable(40) %17, ptr noundef nonnull align 8 dereferenceable(40) %5, i64 40, i1 false), !tbaa.struct !22
  call void @llvm.lifetime.end.p0(i64 40, ptr nonnull %5) #4
  br label %20

20:                                               ; preds = %18, %dsa_paramgen_check.exit
  %.0 = phi ptr [ %19, %18 ], [ %17, %dsa_paramgen_check.exit ]
  call void @llvm.lifetime.start.p0(i64 40, ptr nonnull %6) #4
  call void @OSSL_PARAM_construct_end(ptr dead_on_unwind nonnull writable sret(%struct.ossl_param_st) align 8 %6) #4
  call void @llvm.memcpy.p0.p0.i64(ptr noundef nonnull align 8 dereferenceable(40) %.0, ptr noundef nonnull align 8 dereferenceable(40) %6, i64 40, i1 false), !tbaa.struct !22
  call void @llvm.lifetime.end.p0(i64 40, ptr nonnull %6) #4
  %21 = call i32 @EVP_PKEY_CTX_set_params(ptr noundef nonnull %0, ptr noundef nonnull %4) #4
  br label %dsa_paramgen_check.exit.thread

dsa_paramgen_check.exit.thread:                   ; preds = %15, %11, %20
  %.09 = phi i32 [ %21, %20 ], [ -1, %15 ], [ -2, %11 ]
  call void @llvm.lifetime.end.p0(i64 120, ptr nonnull %4) #4
  ret i32 %.09
}